target datalayout = "e-m:e-p270:32:32-p271:32:32-p272:64:64-i64:64-i128:128-f80:128-n8:16:32:64-S128"
target triple = "x86_64-pc-linux-gnu"

%"class.LIEF::MachO::Relocation" = type { %"class.LIEF::Relocation.base", ptr, i8, i32, ptr, ptr }
%"class.LIEF::Relocation.base" = type <{ %"class.LIEF::Object", i64, i8 }>
%"class.LIEF::Object" = type { ptr }
%"class.LIEF::Relocation" = type <{ %"class.LIEF::Object", i64, i8, [7 x i8] }>

; Function Attrs: mustprogress nounwind uwtable
define linkonce_odr hidden noundef i64 @_ZNK4LIEF10Relocation7addressEv(ptr noundef nonnull align 8 dereferenceable(17) %0) unnamed_addr #1 comdat align 2 {
  %2 = alloca ptr, align 8
  store ptr %0, ptr %2, align 8, !tbaa !58
  %3 = load ptr, ptr %2, align 8
  %4 = getelementptr inbounds nuw %"class.LIEF::Relocation", ptr %3, i32 0, i32 1
  %5 = load i64, ptr %4, align 8, !tbaa !36
  ret i64 %5
}

; Function Attrs: mustprogress nounwind uwtable
define linkonce_odr hidden noundef ptr @_ZNK4LIEF5MachO10Relocation7sectionEv(ptr noundef nonnull align 8 dereferenceable(56) %0) #1 comdat align 2 {
  %2 = alloca ptr, align 8
  store ptr %0, ptr %2, align 8, !tbaa !39
  %3 = load ptr, ptr %2, align 8
  %4 = getelementptr inbounds nuw %"class.LIEF::MachO::Relocation", ptr %3, i32 0, i32 4
  %5 = load ptr, ptr %4, align 8, !tbaa !43
  ret ptr %5
}

; Function Attrs: mustprogress nounwind uwtable
define noundef i64 @_ZNK4LIEF5MachO16RelocationObject7addressEv(ptr noundef nonnull align 8 dereferenceable(64) %0) unnamed_addr #1 align 2 {
  %2 = alloca i64, align 8
  %3 = alloca ptr, align 8
  %4 = alloca ptr, align 8
  %5 = alloca i32, align 4
  store ptr %0, ptr %3, align 8, !tbaa !15
  %6 = load ptr, ptr %3, align 8
  call void @llvm.lifetime.start.p0(i64 8, ptr %4) #19
  %7 = call noundef ptr @_ZNK4LIEF5MachO10Relocation7sectionEv(ptr noundef nonnull align 8 dereferenceable(56) %6)
  store ptr %7, ptr %4, align 8, !tbaa !57
  %8 = load ptr, ptr %4, align 8, !tbaa !57
  %9 = icmp eq ptr %8, null
  br i1 %9, label %10, label %12

10:                                               ; preds = %1
  %11 = call noundef i64 @_ZNK4LIEF10Relocation7addressEv(ptr noundef nonnull align 8 dereferenceable(17) %6)
  store i64 %11, ptr %2, align 8
  store i32 1, ptr %5, align 4
  br label %21

12:                                               ; preds = %1
  %13 = getelementptr inbounds nuw %"class.LIEF::Relocation", ptr %6, i32 0, i32 1
  %14 = load i64, ptr %13, align 8, !tbaa !36
  %15 = call noundef ptr @_ZNK4LIEF5MachO10Relocation7sectionEv(ptr noundef nonnull align 8 dereferenceable(56) %6)
  %16 = load ptr, ptr %15, align 8, !tbaa !19
  %17 = getelementptr inbounds ptr, ptr %16, i64 10
  %18 = load ptr, ptr %17, align 8
  %19 = call noundef i64 %18(ptr noundef nonnull align 8 dereferenceable(64) %15)
  %20 = add i64 %14, %19
  store i64 %20, ptr %2, align 8
  store i32 1, ptr %5, align 4
  br label %21

21:                                               ; preds = %12, %10
  call void @llvm.lifetime.end.p0(i64 8, ptr %4) #19
  %22 = load i64, ptr %2, align 8
  ret i64 %22
}