; Function Attrs: mustprogress nounwind uwtable
define noundef i64 @_ZNK4LIEF5MachO16RelocationObject7addressEv(ptr noundef nonnull readonly align 8 captures(none) dereferenceable(64) %0) unnamed_addr #1 align 2 {
  %2 = getelementptr inbounds nuw i8, ptr %0, i64 40
  %3 = load ptr, ptr %2, align 8, !tbaa !35
  %4 = icmp eq ptr %3, null
  %5 = getelementptr inbounds nuw i8, ptr %0, i64 8
  %6 = load i64, ptr %5, align 8, !tbaa !3
  br i1 %4, label %13, label %7

7:                                                ; preds = %1
  %8 = load ptr, ptr %3, align 8, !tbaa !19
  %9 = getelementptr inbounds nuw i8, ptr %8, i64 80
  %10 = load ptr, ptr %9, align 8
  %11 = tail call noundef i64 %10(ptr noundef nonnull align 8 dereferenceable(64) %3) #22
  %12 = add i64 %11, %6
  br label %13

13:                                               ; preds = %1, %7
  %.0 = phi i64 [ %12, %7 ], [ %6, %1 ]
  ret i64 %.0
}